Certificate:
    Data:
        Version: 3 (0x2)
        Serial Number: 18217710421308960639 (0xfcd24f1b4b0d6f7f)
    Signature Algorithm: sha1WithRSAEncryption
        Issuer: C=DE, CN=test_caretoy
        Validity
            Not Before: Feb  4 16:21:01 2013 GMT
            Not After : Mar  6 16:21:01 2013 GMT
        Subject: C=DE, CN=test_caretoy
        Subject Public Key Info:
            Public Key Algorithm: rsaEncryption
                Public-Key: (1024 bit)
                Modulus:
                    00:d5:37:d6:51:88:ac:00:4c:39:e5:f7:ea:da:d6:
                    35:fd:c6:da:23:b5:aa:6f:f9:17:6b:8d:b9:3f:38:
                    f9:8f:b1:67:65:6d:e5:7d:70:56:c7:34:12:b6:2c:
                    49:ef:7b:46:9f:ea:26:d6:9b:d7:90:be:50:68:37:
                    25:ff:52:93:7f:32:7a:6b:92:75:b6:89:be:38:da:
                    6a:3d:e3:75:81:9c:40:92:1a:c3:25:b0:19:e1:85:
                    7d:6f:c8:ca:e0:86:9c:f9:c9:f4:c2:9a:f1:96:5b:
                    56:59:fb:f3:30:b7:03:fe:89:f0:9b:71:1a:78:16:
                    7f:64:55:66:3a:c1:ce:5f:19
                Exponent: 65537 (0x10001)
        X509v3 extensions:
            X509v3 Subject Key Identifier: 
                F3:79:75:03:11:CD:F7:A7:58:03:F1:97:C1:89:C7:0D:6B:3D:6E:44
            X509v3 Authority Key Identifier: 
                keyid:F3:79:75:03:11:CD:F7:A7:58:03:F1:97:C1:89:C7:0D:6B:3D:6E:44

            X509v3 Basic Constraints: 
                CA:TRUE
    Signature Algorithm: sha1WithRSAEncryption
         d4:da:14:06:1a:5d:3c:60:8d:27:2f:dd:05:bd:f9:66:59:47:
         70:3b:81:0c:69:bd:6c:a2:37:4a:3f:bb:84:56:b5:86:70:6b:
         41:b8:3b:32:aa:09:80:bc:fd:65:aa:78:1a:d0:e2:dc:8d:bf:
         60:8f:74:e5:27:88:47:d0:80:66:ab:ce:5c:54:94:5a:f9:e1:
         37:3f:ae:f0:3d:50:35:9e:37:a5:58:b4:c9:f7:3f:86:eb:6f:
         6f:bf:ea:44:f8:44:c9:89:7b:c9:89:63:0c:cc:53:62:32:50:
         12:9a:d5:bb:78:67:72:a2:ae:f9:04:a9:d2:a4:3a:06:7d:80:
         b1:7b
-----BEGIN CERTIFICATE-----
MIICFjCCAX+gAwIBAgIJAPzSTxtLDW9/MA0GCSqGSIb3DQEBBQUAMCQxCzAJBgNV
BAYTAkRFMRUwEwYDVQQDDAx0ZXN0X2NhcmV0b3kwHhcNMTMwMjA0MTYyMTAxWhcN
MTMwMzA2MTYyMTAxWjAkMQswCQYDVQQGEwJERTEVMBMGA1UEAwwMdGVzdF9jYXJl
dG95MIGfMA0GCSqGSIb3DQEBAQUAA4GNADCBiQKBgQDVN9ZRiKwATDnl9+ra1jX9
xtojtapv+Rdrjbk/OPmPsWdlbeV9cFbHNBK2LEnve0af6ibWm9eQvlBoNyX/UpN/
MnprknW2ib442mo943WBnECSGsMlsBnhhX1vyMrghpz5yfTCmvGWW1ZZ+/MwtwP+
ifCbcRp4Fn9kVWY6wc5fGQIDAQABo1AwTjAdBgNVHQ4EFgQU83l1AxHN96dYA/GX
wYnHDWs9bkQwHwYDVR0jBBgwFoAU83l1AxHN96dYA/GXwYnHDWs9bkQwDAYDVR0T
BAUwAwEB/zANBgkqhkiG9w0BAQUFAAOBgQDU2hQGGl08YI0nL90FvflmWUdwO4EM
ab1sojdKP7uEVrWGcGtBuDsyqgmAvP1lqnga0OLcjb9gj3TlJ4hH0IBmq85cVJRa
+eE3P67wPVA1njelWLTJ9z+G629vv+pE+ETJiXvJiWMMzFNiMlASmtW7eGdyoq75
BKnSpDoGfYCxew==
-----END CERTIFICATE-----
